target datalayout = "e-m:e-p270:32:32-p271:32:32-p272:64:64-i64:64-i128:128-f80:128-n8:16:32:64-S128"
target triple = "x86_64-pc-linux-gnu"

%struct.CvSparseMat = type { i32, i32, ptr, i32, ptr, ptr, i32, i32, i32, [32 x i32] }
%struct.CvScalar = type { [4 x double] }

; Function Attrs: inlinehint mustprogress nounwind uwtable
define internal void @_ZL8cvScalarv(ptr dead_on_unwind noalias writable sret(%struct.CvScalar) align 8 %0) #6 {
  call void @llvm.memset.p0.i64(ptr align 8 %0, i8 0, i64 32, i1 false)
  %2 = getelementptr inbounds nuw %struct.CvScalar, ptr %0, i32 0, i32 0
  %3 = getelementptr inbounds [4 x double], ptr %2, i64 0, i64 3
  store double 0.000000e+00, ptr %3, align 8, !tbaa !156
  %4 = getelementptr inbounds nuw %struct.CvScalar, ptr %0, i32 0, i32 0
  %5 = getelementptr inbounds [4 x double], ptr %4, i64 0, i64 2
  store double 0.000000e+00, ptr %5, align 8, !tbaa !156
  %6 = getelementptr inbounds nuw %struct.CvScalar, ptr %0, i32 0, i32 0
  %7 = getelementptr inbounds [4 x double], ptr %6, i64 0, i64 1
  store double 0.000000e+00, ptr %7, align 8, !tbaa !156
  %8 = getelementptr inbounds nuw %struct.CvScalar, ptr %0, i32 0, i32 0
  %9 = getelementptr inbounds [4 x double], ptr %8, i64 0, i64 0
  store double 0.000000e+00, ptr %9, align 8, !tbaa !156
  ret void
}

; Function Attrs: mustprogress uwtable
define void @cvGetND(ptr dead_on_unwind noalias writable sret(%struct.CvScalar) align 8 %0, ptr noundef %1, ptr noundef %2) #0 {
  %4 = alloca ptr, align 8
  %5 = alloca ptr, align 8
  %6 = alloca i32, align 4
  %7 = alloca ptr, align 8
  store ptr %1, ptr %4, align 8, !tbaa !3
  store ptr %2, ptr %5, align 8, !tbaa !59
  call void @_ZL8cvScalarv(ptr dead_on_unwind writable sret(%struct.CvScalar) align 8 %0)
  call void @llvm.lifetime.start.p0(i64 4, ptr %6) #16
  store i32 0, ptr %6, align 4, !tbaa !7
  call void @llvm.lifetime.start.p0(i64 8, ptr %7) #16
  %8 = load ptr, ptr %4, align 8, !tbaa !3
  %9 = icmp ne ptr %8, null
  br i1 %9, label %10, label %16

10:                                               ; preds = %3
  %11 = load ptr, ptr %4, align 8, !tbaa !3
  %12 = getelementptr inbounds nuw %struct.CvSparseMat, ptr %11, i32 0, i32 0
  %13 = load i32, ptr %12, align 8, !tbaa !97
  %14 = and i32 %13, -65536
  %15 = icmp eq i32 %14, 1111752704
  br i1 %15, label %20, label %16

16:                                               ; preds = %10, %3
  %17 = load ptr, ptr %4, align 8, !tbaa !3
  %18 = load ptr, ptr %5, align 8, !tbaa !59
  %19 = call ptr @cvPtrND(ptr noundef %17, ptr noundef %18, ptr noundef %6, i32 noundef 1, ptr noundef null)
  store ptr %19, ptr %7, align 8, !tbaa !19
  br label %24

20:                                               ; preds = %10
  %21 = load ptr, ptr %4, align 8, !tbaa !3
  %22 = load ptr, ptr %5, align 8, !tbaa !59
  %23 = call noundef ptr @_ZL13icvGetNodePtrP11CvSparseMatPKiPiiPj(ptr noundef %21, ptr noundef %22, ptr noundef %6, i32 noundef 0, ptr noundef null)
  store ptr %23, ptr %7, align 8, !tbaa !19
  br label %24

24:                                               ; preds = %20, %16
  %25 = load ptr, ptr %7, align 8, !tbaa !19
  %26 = icmp ne ptr %25, null
  br i1 %26, label %27, label %30

27:                                               ; preds = %24
  %28 = load ptr, ptr %7, align 8, !tbaa !19
  %29 = load i32, ptr %6, align 4, !tbaa !7
  call void @cvRawDataToScalar(ptr noundef %28, i32 noundef %29, ptr noundef %0)
  br label %30

30:                                               ; preds = %27, %24
  call void @llvm.lifetime.end.p0(i64 8, ptr %7) #16
  call void @llvm.lifetime.end.p0(i64 4, ptr %6) #16
  ret void
}