; Function Attrs: mustprogress uwtable
define void @cvGetND(ptr dead_on_unwind noalias writable sret(%struct.CvScalar) align 8 initializes((0, 32)) %0, ptr noundef %1, ptr noundef %2) local_unnamed_addr #0 {
  %4 = alloca i32, align 4
  tail call void @llvm.memset.p0.i64(ptr noundef nonnull align 8 dereferenceable(32) %0, i8 0, i64 32, i1 false), !alias.scope !173
  call void @llvm.lifetime.start.p0(i64 4, ptr nonnull %4) #12
  store i32 0, ptr %4, align 4, !tbaa !26
  %.not = icmp eq ptr %1, null
  br i1 %.not, label %.split, label %6

.split:                                           ; preds = %3
  %5 = call ptr @cvPtrND(ptr noundef null, ptr noundef %2, ptr noundef nonnull %4, i32 noundef 1, ptr noundef null)
  br label %13

6:                                                ; preds = %3
  %7 = load i32, ptr %1, align 8, !tbaa !80
  %8 = and i32 %7, -65536
  %9 = icmp eq i32 %8, 1111752704
  br i1 %9, label %11, label %.split8

.split8:                                          ; preds = %6
  %10 = call ptr @cvPtrND(ptr noundef nonnull %1, ptr noundef %2, ptr noundef nonnull %4, i32 noundef 1, ptr noundef null)
  br label %13

11:                                               ; preds = %6
  %12 = call fastcc noundef ptr @_ZL13icvGetNodePtrP11CvSparseMatPKiPiiPj(ptr noundef %1, ptr noundef %2, ptr noundef nonnull %4, i32 noundef 0, ptr noundef null)
  br label %13

13:                                               ; preds = %.split, %.split8, %11
  %.0 = phi ptr [ %12, %11 ], [ %5, %.split ], [ %10, %.split8 ]
  %.not10 = icmp eq ptr %.0, null
  br i1 %.not10, label %16, label %14

14:                                               ; preds = %13
  %15 = load i32, ptr %4, align 4, !tbaa !26
  call void @cvRawDataToScalar(ptr noundef nonnull %.0, i32 noundef %15, ptr noundef nonnull %0)
  br label %16

16:                                               ; preds = %14, %13
  call void @llvm.lifetime.end.p0(i64 4, ptr nonnull %4) #12
  ret void
}